target datalayout = "e-m:e-p270:32:32-p271:32:32-p272:64:64-i64:64-i128:128-f80:128-n8:16:32:64-S128"
target triple = "x86_64-pc-linux-gnu"

@.str = private unnamed_addr constant [51 x i8] c"src/jdk.jdwp.agent/share/native/libjdwp/utf_util.c\00", align 1
@.str.1 = private unnamed_addr constant [23 x i8] c"ASSERT ERROR i==length\00", align 1
@.str.2 = private unnamed_addr constant [26 x i8] c"ASSERT ERROR j==newLength\00", align 1
@stderr = external global ptr, align 8
@.str.3 = private unnamed_addr constant [25 x i8] c"UTF ERROR [\22%s\22:%d]: %s\0A\00", align 1

; Function Attrs: nounwind uwtable
define internal void @utfError(ptr noundef %0, i32 noundef %1, ptr noundef %2) #0 {
  %4 = alloca ptr, align 8
  %5 = alloca i32, align 4
  %6 = alloca ptr, align 8
  store ptr %0, ptr %4, align 8
  store i32 %1, ptr %5, align 4
  store ptr %2, ptr %6, align 8
  %7 = load ptr, ptr @stderr, align 8
  %8 = load ptr, ptr %4, align 8
  %9 = load i32, ptr %5, align 4
  %10 = load ptr, ptr %6, align 8
  %11 = call i32 (ptr, ptr, ...) @fprintf(ptr noundef %7, ptr noundef @.str.3, ptr noundef %8, i32 noundef %9, ptr noundef %10) #5
  call void @abort() #6
  unreachable
}

; Function Attrs: nounwind uwtable
define hidden void @utf8mToUtf8s(ptr noundef %0, i32 noundef %1, ptr noundef %2, i32 noundef %3) #0 {
  %5 = alloca ptr, align 8
  %6 = alloca i32, align 4
  %7 = alloca ptr, align 8
  %8 = alloca i32, align 4
  %9 = alloca i32, align 4
  %10 = alloca i32, align 4
  %11 = alloca i32, align 4
  %12 = alloca i32, align 4
  %13 = alloca i32, align 4
  %14 = alloca i32, align 4
  %15 = alloca i32, align 4
  %16 = alloca i32, align 4
  %17 = alloca i32, align 4
  store ptr %0, ptr %5, align 8
  store i32 %1, ptr %6, align 4
  store ptr %2, ptr %7, align 8
  store i32 %3, ptr %8, align 4
  store i32 0, ptr %10, align 4
  store i32 0, ptr %9, align 4
  br label %18

18:                                               ; preds = %223, %4
  %19 = load i32, ptr %9, align 4
  %20 = load i32, ptr %6, align 4
  %21 = icmp slt i32 %19, %20
  br i1 %21, label %22, label %226

22:                                               ; preds = %18
  %23 = load ptr, ptr %5, align 8
  %24 = load i32, ptr %9, align 4
  %25 = sext i32 %24 to i64
  %26 = getelementptr inbounds i8, ptr %23, i64 %25
  %27 = load i8, ptr %26, align 1
  %28 = zext i8 %27 to i32
  store i32 %28, ptr %11, align 4
  %29 = load i32, ptr %11, align 4
  %30 = and i32 %29, 128
  %31 = icmp eq i32 %30, 0
  br i1 %31, label %32, label %40

32:                                               ; preds = %22
  %33 = load i32, ptr %11, align 4
  %34 = trunc i32 %33 to i8
  %35 = load ptr, ptr %7, align 8
  %36 = load i32, ptr %10, align 4
  %37 = add nsw i32 %36, 1
  store i32 %37, ptr %10, align 4
  %38 = sext i32 %36 to i64
  %39 = getelementptr inbounds i8, ptr %35, i64 %38
  store i8 %34, ptr %39, align 1
  br label %222

40:                                               ; preds = %22
  %41 = load i32, ptr %11, align 4
  %42 = and i32 %41, 224
  %43 = icmp eq i32 %42, 192
  br i1 %43, label %44, label %79

44:                                               ; preds = %40
  %45 = load ptr, ptr %5, align 8
  %46 = load i32, ptr %9, align 4
  %47 = add nsw i32 %46, 1
  store i32 %47, ptr %9, align 4
  %48 = sext i32 %47 to i64
  %49 = getelementptr inbounds i8, ptr %45, i64 %48
  %50 = load i8, ptr %49, align 1
  %51 = zext i8 %50 to i32
  store i32 %51, ptr %12, align 4
  %52 = load i32, ptr %11, align 4
  %53 = icmp ne i32 %52, 192
  br i1 %53, label %57, label %54

54:                                               ; preds = %44
  %55 = load i32, ptr %12, align 4
  %56 = icmp ne i32 %55, 128
  br i1 %56, label %57, label %72

57:                                               ; preds = %54, %44
  %58 = load i32, ptr %11, align 4
  %59 = trunc i32 %58 to i8
  %60 = load ptr, ptr %7, align 8
  %61 = load i32, ptr %10, align 4
  %62 = add nsw i32 %61, 1
  store i32 %62, ptr %10, align 4
  %63 = sext i32 %61 to i64
  %64 = getelementptr inbounds i8, ptr %60, i64 %63
  store i8 %59, ptr %64, align 1
  %65 = load i32, ptr %12, align 4
  %66 = trunc i32 %65 to i8
  %67 = load ptr, ptr %7, align 8
  %68 = load i32, ptr %10, align 4
  %69 = add nsw i32 %68, 1
  store i32 %69, ptr %10, align 4
  %70 = sext i32 %68 to i64
  %71 = getelementptr inbounds i8, ptr %67, i64 %70
  store i8 %66, ptr %71, align 1
  br label %78

72:                                               ; preds = %54
  %73 = load ptr, ptr %7, align 8
  %74 = load i32, ptr %10, align 4
  %75 = add nsw i32 %74, 1
  store i32 %75, ptr %10, align 4
  %76 = sext i32 %74 to i64
  %77 = getelementptr inbounds i8, ptr %73, i64 %76
  store i8 0, ptr %77, align 1
  br label %78

78:                                               ; preds = %72, %57
  br label %221

79:                                               ; preds = %40
  %80 = load i32, ptr %11, align 4
  %81 = and i32 %80, 240
  %82 = icmp eq i32 %81, 224
  br i1 %82, label %83, label %220

83:                                               ; preds = %79
  %84 = load ptr, ptr %5, align 8
  %85 = load i32, ptr %9, align 4
  %86 = add nsw i32 %85, 1
  store i32 %86, ptr %9, align 4
  %87 = sext i32 %86 to i64
  %88 = getelementptr inbounds i8, ptr %84, i64 %87
  %89 = load i8, ptr %88, align 1
  %90 = zext i8 %89 to i32
  store i32 %90, ptr %12, align 4
  %91 = load ptr, ptr %5, align 8
  %92 = load i32, ptr %9, align 4
  %93 = add nsw i32 %92, 1
  store i32 %93, ptr %9, align 4
  %94 = sext i32 %93 to i64
  %95 = getelementptr inbounds i8, ptr %91, i64 %94
  %96 = load i8, ptr %95, align 1
  %97 = zext i8 %96 to i32
  store i32 %97, ptr %13, align 4
  %98 = load i32, ptr %9, align 4
  %99 = add nsw i32 %98, 3
  %100 = load i32, ptr %6, align 4
  %101 = icmp slt i32 %99, %100
  br i1 %101, label %102, label %198

102:                                              ; preds = %83
  %103 = load i32, ptr %11, align 4
  %104 = icmp eq i32 %103, 237
  br i1 %104, label %105, label %198

105:                                              ; preds = %102
  %106 = load i32, ptr %12, align 4
  %107 = and i32 %106, 240
  %108 = icmp eq i32 %107, 160
  br i1 %108, label %109, label %198

109:                                              ; preds = %105
  %110 = load ptr, ptr %5, align 8
  %111 = load i32, ptr %9, align 4
  %112 = add nsw i32 %111, 1
  %113 = sext i32 %112 to i64
  %114 = getelementptr inbounds i8, ptr %110, i64 %113
  %115 = load i8, ptr %114, align 1
  %116 = zext i8 %115 to i32
  store i32 %116, ptr %14, align 4
  %117 = load ptr, ptr %5, align 8
  %118 = load i32, ptr %9, align 4
  %119 = add nsw i32 %118, 2
  %120 = sext i32 %119 to i64
  %121 = getelementptr inbounds i8, ptr %117, i64 %120
  %122 = load i8, ptr %121, align 1
  %123 = zext i8 %122 to i32
  store i32 %123, ptr %15, align 4
  %124 = load ptr, ptr %5, align 8
  %125 = load i32, ptr %9, align 4
  %126 = add nsw i32 %125, 3
  %127 = sext i32 %126 to i64
  %128 = getelementptr inbounds i8, ptr %124, i64 %127
  %129 = load i8, ptr %128, align 1
  %130 = zext i8 %129 to i32
  store i32 %130, ptr %16, align 4
  %131 = load i32, ptr %14, align 4
  %132 = icmp eq i32 %131, 237
  br i1 %132, label %133, label %197

133:                                              ; preds = %109
  %134 = load i32, ptr %15, align 4
  %135 = and i32 %134, 240
  %136 = icmp eq i32 %135, 176
  br i1 %136, label %137, label %197

137:                                              ; preds = %133
  %138 = load i32, ptr %9, align 4
  %139 = add nsw i32 %138, 3
  store i32 %139, ptr %9, align 4
  %140 = load i32, ptr %12, align 4
  %141 = and i32 %140, 15
  %142 = add i32 %141, 1
  %143 = shl i32 %142, 16
  store i32 %143, ptr %17, align 4
  %144 = load i32, ptr %13, align 4
  %145 = and i32 %144, 63
  %146 = shl i32 %145, 10
  %147 = load i32, ptr %17, align 4
  %148 = add i32 %147, %146
  store i32 %148, ptr %17, align 4
  %149 = load i32, ptr %15, align 4
  %150 = and i32 %149, 15
  %151 = shl i32 %150, 6
  %152 = load i32, ptr %17, align 4
  %153 = add i32 %152, %151
  store i32 %153, ptr %17, align 4
  %154 = load i32, ptr %16, align 4
  %155 = and i32 %154, 63
  %156 = load i32, ptr %17, align 4
  %157 = add i32 %156, %155
  store i32 %157, ptr %17, align 4
  %158 = load i32, ptr %17, align 4
  %159 = lshr i32 %158, 18
  %160 = and i32 %159, 7
  %161 = add i32 240, %160
  %162 = trunc i32 %161 to i8
  %163 = load ptr, ptr %7, align 8
  %164 = load i32, ptr %10, align 4
  %165 = add nsw i32 %164, 1
  store i32 %165, ptr %10, align 4
  %166 = sext i32 %164 to i64
  %167 = getelementptr inbounds i8, ptr %163, i64 %166
  store i8 %162, ptr %167, align 1
  %168 = load i32, ptr %17, align 4
  %169 = lshr i32 %168, 12
  %170 = and i32 %169, 63
  %171 = add i32 128, %170
  %172 = trunc i32 %171 to i8
  %173 = load ptr, ptr %7, align 8
  %174 = load i32, ptr %10, align 4
  %175 = add nsw i32 %174, 1
  store i32 %175, ptr %10, align 4
  %176 = sext i32 %174 to i64
  %177 = getelementptr inbounds i8, ptr %173, i64 %176
  store i8 %172, ptr %177, align 1
  %178 = load i32, ptr %17, align 4
  %179 = lshr i32 %178, 6
  %180 = and i32 %179, 63
  %181 = add i32 128, %180
  %182 = trunc i32 %181 to i8
  %183 = load ptr, ptr %7, align 8
  %184 = load i32, ptr %10, align 4
  %185 = add nsw i32 %184, 1
  store i32 %185, ptr %10, align 4
  %186 = sext i32 %184 to i64
  %187 = getelementptr inbounds i8, ptr %183, i64 %186
  store i8 %182, ptr %187, align 1
  %188 = load i32, ptr %17, align 4
  %189 = and i32 %188, 63
  %190 = add i32 128, %189
  %191 = trunc i32 %190 to i8
  %192 = load ptr, ptr %7, align 8
  %193 = load i32, ptr %10, align 4
  %194 = add nsw i32 %193, 1
  store i32 %194, ptr %10, align 4
  %195 = sext i32 %193 to i64
  %196 = getelementptr inbounds i8, ptr %192, i64 %195
  store i8 %191, ptr %196, align 1
  br label %223

197:                                              ; preds = %133, %109
  br label %198

198:                                              ; preds = %197, %105, %102, %83
  %199 = load i32, ptr %11, align 4
  %200 = trunc i32 %199 to i8
  %201 = load ptr, ptr %7, align 8
  %202 = load i32, ptr %10, align 4
  %203 = add nsw i32 %202, 1
  store i32 %203, ptr %10, align 4
  %204 = sext i32 %202 to i64
  %205 = getelementptr inbounds i8, ptr %201, i64 %204
  store i8 %200, ptr %205, align 1
  %206 = load i32, ptr %12, align 4
  %207 = trunc i32 %206 to i8
  %208 = load ptr, ptr %7, align 8
  %209 = load i32, ptr %10, align 4
  %210 = add nsw i32 %209, 1
  store i32 %210, ptr %10, align 4
  %211 = sext i32 %209 to i64
  %212 = getelementptr inbounds i8, ptr %208, i64 %211
  store i8 %207, ptr %212, align 1
  %213 = load i32, ptr %13, align 4
  %214 = trunc i32 %213 to i8
  %215 = load ptr, ptr %7, align 8
  %216 = load i32, ptr %10, align 4
  %217 = add nsw i32 %216, 1
  store i32 %217, ptr %10, align 4
  %218 = sext i32 %216 to i64
  %219 = getelementptr inbounds i8, ptr %215, i64 %218
  store i8 %214, ptr %219, align 1
  br label %220

220:                                              ; preds = %198, %79
  br label %221

221:                                              ; preds = %220, %78
  br label %222

222:                                              ; preds = %221, %32
  br label %223

223:                                              ; preds = %222, %137
  %224 = load i32, ptr %9, align 4
  %225 = add nsw i32 %224, 1
  store i32 %225, ptr %9, align 4
  br label %18, !llvm.loop !10

226:                                              ; preds = %18
  %227 = load i32, ptr %9, align 4
  %228 = load i32, ptr %6, align 4
  %229 = icmp eq i32 %227, %228
  %230 = zext i1 %229 to i32
  %231 = icmp eq i32 %230, 0
  br i1 %231, label %232, label %233

232:                                              ; preds = %226
  call void @utfError(ptr noundef @.str, i32 noundef 292, ptr noundef @.str.1)
  br label %234

233:                                              ; preds = %226
  br label %234

234:                                              ; preds = %233, %232
  %235 = load i32, ptr %10, align 4
  %236 = load i32, ptr %8, align 4
  %237 = icmp eq i32 %235, %236
  %238 = zext i1 %237 to i32
  %239 = icmp eq i32 %238, 0
  br i1 %239, label %240, label %241

240:                                              ; preds = %234
  call void @utfError(ptr noundef @.str, i32 noundef 293, ptr noundef @.str.2)
  br label %242

241:                                              ; preds = %234
  br label %242

242:                                              ; preds = %241, %240
  %243 = load ptr, ptr %7, align 8
  %244 = load i32, ptr %10, align 4
  %245 = sext i32 %244 to i64
  %246 = getelementptr inbounds i8, ptr %243, i64 %245
  store i8 0, ptr %246, align 1
  ret void
}