; Function Attrs: nounwind uwtable
define hidden void @utf8mToUtf8s(ptr nocapture noundef readonly %0, i32 noundef %1, ptr nocapture noundef writeonly %2, i32 noundef %3) local_unnamed_addr #1 {
  %invariant.gep = getelementptr i8, ptr %0, i64 1
  %5 = icmp sgt i32 %1, 0
  br i1 %5, label %.lr.ph, label %._crit_edge

.lr.ph:                                           ; preds = %4, %97
  %.088 = phi i32 [ %98, %97 ], [ 0, %4 ]
  %.07687 = phi i32 [ %.177, %97 ], [ 0, %4 ]
  %6 = sext i32 %.088 to i64
  %7 = getelementptr inbounds i8, ptr %0, i64 %6
  %8 = load i8, ptr %7, align 1
  %9 = zext i8 %8 to i32
  %10 = icmp sgt i8 %8, -1
  br i1 %10, label %11, label %15

11:                                               ; preds = %.lr.ph
  %12 = add nsw i32 %.07687, 1
  %13 = sext i32 %.07687 to i64
  %14 = getelementptr inbounds i8, ptr %2, i64 %13
  store i8 %8, ptr %14, align 1
  br label %97

15:                                               ; preds = %.lr.ph
  %16 = and i32 %9, 224
  %17 = icmp eq i32 %16, 192
  br i1 %17, label %18, label %34

18:                                               ; preds = %15
  %19 = add nsw i32 %.088, 1
  %20 = sext i32 %19 to i64
  %21 = getelementptr inbounds i8, ptr %0, i64 %20
  %22 = load i8, ptr %21, align 1
  %23 = icmp ne i8 %8, -64
  %24 = icmp ne i8 %22, -128
  %or.cond = select i1 %23, i1 true, i1 %24
  br i1 %or.cond, label %25, label %30

25:                                               ; preds = %18
  %26 = sext i32 %.07687 to i64
  %27 = getelementptr inbounds i8, ptr %2, i64 %26
  store i8 %8, ptr %27, align 1
  %28 = add nsw i32 %.07687, 2
  %29 = getelementptr i8, ptr %27, i64 1
  store i8 %22, ptr %29, align 1
  br label %97

30:                                               ; preds = %18
  %31 = add nsw i32 %.07687, 1
  %32 = sext i32 %.07687 to i64
  %33 = getelementptr inbounds i8, ptr %2, i64 %32
  store i8 0, ptr %33, align 1
  br label %97

34:                                               ; preds = %15
  %35 = and i32 %9, 240
  %36 = icmp eq i32 %35, 224
  br i1 %36, label %37, label %97

37:                                               ; preds = %34
  %gep = getelementptr i8, ptr %invariant.gep, i64 %6
  %38 = load i8, ptr %gep, align 1
  %39 = zext i8 %38 to i32
  %40 = add nsw i32 %.088, 2
  %41 = sext i32 %40 to i64
  %42 = getelementptr inbounds i8, ptr %0, i64 %41
  %43 = load i8, ptr %42, align 1
  %44 = add nsw i32 %.088, 5
  %45 = icmp slt i32 %44, %1
  %46 = icmp eq i8 %8, -19
  %or.cond3 = and i1 %45, %46
  %47 = and i32 %39, 240
  %48 = icmp eq i32 %47, 160
  %or.cond83 = select i1 %or.cond3, i1 %48, i1 false
  br i1 %or.cond83, label %49, label %91

49:                                               ; preds = %37
  %50 = getelementptr i8, ptr %7, i64 3
  %51 = load i8, ptr %50, align 1
  %52 = getelementptr i8, ptr %7, i64 4
  %53 = load i8, ptr %52, align 1
  %54 = zext i8 %53 to i32
  %55 = icmp eq i8 %51, -19
  %56 = and i32 %54, 240
  %57 = icmp eq i32 %56, 176
  %or.cond85 = select i1 %55, i1 %57, i1 false
  br i1 %or.cond85, label %58, label %91

58:                                               ; preds = %49
  %59 = sext i32 %44 to i64
  %60 = getelementptr inbounds i8, ptr %0, i64 %59
  %61 = load i8, ptr %60, align 1
  %62 = shl nuw nsw i32 %39, 16
  %63 = and i32 %62, 983040
  %64 = add nuw nsw i32 %63, 65536
  %65 = and i8 %43, 63
  %66 = zext nneg i8 %65 to i32
  %67 = shl nuw nsw i32 %66, 10
  %68 = or disjoint i32 %64, %67
  %69 = shl nuw nsw i32 %54, 6
  %70 = and i32 %69, 960
  %71 = or disjoint i32 %70, %67
  %72 = lshr i32 %64, 18
  %73 = trunc nuw nsw i32 %72 to i8
  %74 = or disjoint i8 %73, -16
  %75 = sext i32 %.07687 to i64
  %76 = getelementptr inbounds i8, ptr %2, i64 %75
  store i8 %74, ptr %76, align 1
  %77 = lshr i32 %68, 12
  %78 = trunc i32 %77 to i8
  %79 = and i8 %78, 63
  %80 = or disjoint i8 %79, -128
  %81 = getelementptr i8, ptr %76, i64 1
  store i8 %80, ptr %81, align 1
  %82 = lshr exact i32 %71, 6
  %83 = trunc i32 %82 to i8
  %84 = and i8 %83, 63
  %85 = or disjoint i8 %84, -128
  %86 = getelementptr i8, ptr %76, i64 2
  store i8 %85, ptr %86, align 1
  %87 = and i8 %61, 63
  %88 = or disjoint i8 %87, -128
  %89 = add nsw i32 %.07687, 4
  %90 = getelementptr i8, ptr %76, i64 3
  store i8 %88, ptr %90, align 1
  br label %97

91:                                               ; preds = %49, %37
  %92 = sext i32 %.07687 to i64
  %93 = getelementptr inbounds i8, ptr %2, i64 %92
  store i8 %8, ptr %93, align 1
  %94 = getelementptr i8, ptr %93, i64 1
  store i8 %38, ptr %94, align 1
  %95 = add nsw i32 %.07687, 3
  %96 = getelementptr i8, ptr %93, i64 2
  store i8 %43, ptr %96, align 1
  br label %97

97:                                               ; preds = %11, %34, %91, %25, %30, %58
  %.177 = phi i32 [ %12, %11 ], [ %28, %25 ], [ %31, %30 ], [ %89, %58 ], [ %95, %91 ], [ %.07687, %34 ]
  %.1 = phi i32 [ %.088, %11 ], [ %19, %25 ], [ %19, %30 ], [ %44, %58 ], [ %40, %91 ], [ %.088, %34 ]
  %98 = add nsw i32 %.1, 1
  %99 = icmp slt i32 %98, %1
  br i1 %99, label %.lr.ph, label %._crit_edge, !llvm.loop !10

._crit_edge:                                      ; preds = %97, %4
  %.076.lcssa = phi i32 [ 0, %4 ], [ %.177, %97 ]
  %.0.lcssa = phi i32 [ 0, %4 ], [ %98, %97 ]
  %.not = icmp eq i32 %.0.lcssa, %1
  br i1 %.not, label %103, label %100

100:                                              ; preds = %._crit_edge
  %101 = load ptr, ptr @stderr, align 8
  %102 = tail call i32 (ptr, ptr, ...) @fprintf(ptr noundef %101, ptr noundef nonnull @.str.3, ptr noundef nonnull @.str, i32 noundef 292, ptr noundef nonnull @.str.1) #7
  tail call void @abort() #8
  unreachable

103:                                              ; preds = %._crit_edge
  %.not81 = icmp eq i32 %.076.lcssa, %3
  br i1 %.not81, label %107, label %104

104:                                              ; preds = %103
  %105 = load ptr, ptr @stderr, align 8
  %106 = tail call i32 (ptr, ptr, ...) @fprintf(ptr noundef %105, ptr noundef nonnull @.str.3, ptr noundef nonnull @.str, i32 noundef 293, ptr noundef nonnull @.str.2) #7
  tail call void @abort() #8
  unreachable

107:                                              ; preds = %103
  %108 = sext i32 %3 to i64
  %109 = getelementptr inbounds i8, ptr %2, i64 %108
  store i8 0, ptr %109, align 1
  ret void
}